(i__main__
player
p0
(dp1
S'myCactus'
p2
(i__main__
cactus
p3
(dp4
S'lastWatered'
p5
F1518464602.585
sS'mood'
p6
S'Happy'
p7
sS'level'
p8
I1
sS'EXP'
p9
I11
sS'lastFert'
p10
I0
sS'name'
p11
S'Cactuar'
p12
sbsg11
S'Vivibb'
p13
sS'money'
p14
I0
sS'newGame'
p15
I00
sS'highScores'
p16
(lp17
I1
aI2
aI3
aI4
aI5
aI6
aI7
aI8
aI9
aI10
asS'moneyPlaysList'
p18
(lp19
sS'waterLevel'
p20
I3
sb.